target datalayout = "e-m:e-p270:32:32-p271:32:32-p272:64:64-i64:64-i128:128-f80:128-n8:16:32:64-S128"
target triple = "x86_64-pc-linux-gnu"

%struct._zend_array = type { %struct._zend_refcounted_h, %union.anon.0, i32, %union.anon.1, i32, i32, i32, i32, i64, ptr }
%struct._zend_refcounted_h = type { i32, %union.anon }
%union.anon = type { i32 }
%union.anon.0 = type { i32 }
%union.anon.1 = type { ptr }
%struct._zval_struct = type { %union._zend_value, %union.anon.3, %union.anon.6 }
%union._zend_value = type { i64 }
%union.anon.3 = type { i32 }
%union.anon.6 = type { i32 }
%struct._php_stream_context = type { ptr, %struct._zval_struct, ptr }
%struct._zend_reference = type { %struct._zend_refcounted_h, %struct._zval_struct, %union.zend_property_info_source_list }
%union.zend_property_info_source_list = type { ptr }
%struct.anon.4 = type { i8, i8, %union.anon.5 }
%union.anon.5 = type { i16 }

; Function Attrs: nounwind uwtable
define void @php_stream_context_set_option(ptr noundef %0, ptr noundef %1, ptr noundef %2, ptr noundef %3) #0 {
  %5 = alloca ptr, align 8
  %6 = alloca ptr, align 8
  %7 = alloca ptr, align 8
  %8 = alloca ptr, align 8
  %9 = alloca ptr, align 8
  %10 = alloca ptr, align 8
  %11 = alloca ptr, align 8
  %12 = alloca ptr, align 8
  %13 = alloca ptr, align 8
  %14 = alloca ptr, align 8
  %15 = alloca ptr, align 8
  %16 = alloca ptr, align 8
  %17 = alloca %struct._zval_struct, align 8
  %18 = alloca ptr, align 8
  %19 = alloca ptr, align 8
  %20 = alloca ptr, align 8
  %21 = alloca ptr, align 8
  %22 = alloca ptr, align 8
  %23 = alloca ptr, align 8
  %24 = alloca ptr, align 8
  %25 = alloca ptr, align 8
  %26 = alloca ptr, align 8
  %27 = alloca ptr, align 8
  store ptr %0, ptr %12, align 8
  store ptr %1, ptr %13, align 8
  store ptr %2, ptr %14, align 8
  store ptr %3, ptr %15, align 8
  br label %28

28:                                               ; preds = %4
  %29 = load ptr, ptr %12, align 8
  %30 = getelementptr inbounds %struct._php_stream_context, ptr %29, i32 0, i32 1
  store ptr %30, ptr %18, align 8
  %31 = load ptr, ptr %18, align 8
  %32 = getelementptr inbounds %struct._zval_struct, ptr %31, i32 0, i32 0
  %33 = load ptr, ptr %32, align 8
  store ptr %33, ptr %19, align 8
  %34 = load ptr, ptr %19, align 8
  %35 = getelementptr inbounds %struct._zend_array, ptr %34, i32 0, i32 0
  store ptr %35, ptr %9, align 8
  %36 = load ptr, ptr %9, align 8
  %37 = load i32, ptr %36, align 4
  %38 = icmp ugt i32 %37, 1
  %39 = xor i1 %38, true
  %40 = xor i1 %39, true
  %41 = zext i1 %40 to i32
  %42 = sext i32 %41 to i64
  %43 = icmp ne i64 %42, 0
  br i1 %43, label %44, label %67

44:                                               ; preds = %28
  br label %45

45:                                               ; preds = %44
  %46 = load ptr, ptr %19, align 8
  %47 = call ptr @zend_array_dup(ptr noundef %46)
  store ptr %47, ptr %20, align 8
  %48 = load ptr, ptr %18, align 8
  store ptr %48, ptr %21, align 8
  %49 = load ptr, ptr %20, align 8
  %50 = load ptr, ptr %21, align 8
  %51 = getelementptr inbounds %struct._zval_struct, ptr %50, i32 0, i32 0
  store ptr %49, ptr %51, align 8
  %52 = load ptr, ptr %21, align 8
  %53 = getelementptr inbounds %struct._zval_struct, ptr %52, i32 0, i32 1
  store i32 775, ptr %53, align 8
  br label %54

54:                                               ; preds = %45
  %55 = load ptr, ptr %19, align 8
  %56 = getelementptr inbounds %struct._zend_array, ptr %55, i32 0, i32 0
  store ptr %56, ptr %7, align 8
  %57 = load ptr, ptr %7, align 8
  %58 = getelementptr inbounds %struct._zend_refcounted_h, ptr %57, i32 0, i32 1
  %59 = load i32, ptr %58, align 4
  %60 = and i32 %59, 64
  %61 = icmp ne i32 %60, 0
  br i1 %61, label %66, label %62

62:                                               ; preds = %54
  %63 = load ptr, ptr %7, align 8
  %64 = load i32, ptr %63, align 4
  %65 = add i32 %64, -1
  store i32 %65, ptr %63, align 4
  br label %66

66:                                               ; preds = %62, %54
  br label %67

67:                                               ; preds = %66, %28
  br label %68

68:                                               ; preds = %67
  %69 = load ptr, ptr %12, align 8
  %70 = getelementptr inbounds %struct._php_stream_context, ptr %69, i32 0, i32 1
  %71 = getelementptr inbounds %struct._zval_struct, ptr %70, i32 0, i32 0
  %72 = load ptr, ptr %71, align 8
  %73 = load ptr, ptr %13, align 8
  %74 = load ptr, ptr %13, align 8
  %75 = call i64 @strlen(ptr noundef %74) #13
  %76 = call ptr @zend_hash_str_find(ptr noundef %72, ptr noundef %73, i64 noundef %75)
  store ptr %76, ptr %16, align 8
  %77 = load ptr, ptr %16, align 8
  %78 = icmp eq ptr null, %77
  br i1 %78, label %79, label %96

79:                                               ; preds = %68
  br label %80

80:                                               ; preds = %79
  %81 = call ptr @_zend_new_array_0()
  store ptr %81, ptr %22, align 8
  store ptr %17, ptr %23, align 8
  %82 = load ptr, ptr %22, align 8
  %83 = load ptr, ptr %23, align 8
  %84 = getelementptr inbounds %struct._zval_struct, ptr %83, i32 0, i32 0
  store ptr %82, ptr %84, align 8
  %85 = load ptr, ptr %23, align 8
  %86 = getelementptr inbounds %struct._zval_struct, ptr %85, i32 0, i32 1
  store i32 775, ptr %86, align 8
  br label %87

87:                                               ; preds = %80
  %88 = load ptr, ptr %12, align 8
  %89 = getelementptr inbounds %struct._php_stream_context, ptr %88, i32 0, i32 1
  %90 = getelementptr inbounds %struct._zval_struct, ptr %89, i32 0, i32 0
  %91 = load ptr, ptr %90, align 8
  %92 = load ptr, ptr %13, align 8
  %93 = load ptr, ptr %13, align 8
  %94 = call i64 @strlen(ptr noundef %93) #13
  %95 = call ptr @zend_hash_str_update(ptr noundef %91, ptr noundef %92, i64 noundef %94, ptr noundef %17)
  store ptr %95, ptr %16, align 8
  br label %96

96:                                               ; preds = %87, %68
  br label %97

97:                                               ; preds = %96
  %98 = load ptr, ptr %15, align 8
  store ptr %98, ptr %11, align 8
  %99 = load ptr, ptr %11, align 8
  %100 = getelementptr inbounds %struct._zval_struct, ptr %99, i32 0, i32 1
  %101 = load i8, ptr %100, align 8
  %102 = zext i8 %101 to i32
  %103 = icmp eq i32 %102, 10
  %104 = xor i1 %103, true
  %105 = xor i1 %104, true
  %106 = zext i1 %105 to i32
  %107 = sext i32 %106 to i64
  %108 = icmp ne i64 %107, 0
  br i1 %108, label %109, label %114

109:                                              ; preds = %97
  %110 = load ptr, ptr %15, align 8
  %111 = getelementptr inbounds %struct._zval_struct, ptr %110, i32 0, i32 0
  %112 = load ptr, ptr %111, align 8
  %113 = getelementptr inbounds %struct._zend_reference, ptr %112, i32 0, i32 1
  store ptr %113, ptr %15, align 8
  br label %114

114:                                              ; preds = %109, %97
  br label %115

115:                                              ; preds = %114
  br label %116

116:                                              ; preds = %115
  %117 = load ptr, ptr %15, align 8
  %118 = getelementptr inbounds %struct._zval_struct, ptr %117, i32 0, i32 1
  %119 = getelementptr inbounds %struct.anon.4, ptr %118, i32 0, i32 1
  %120 = load i8, ptr %119, align 1
  %121 = zext i8 %120 to i32
  %122 = icmp ne i32 %121, 0
  br i1 %122, label %123, label %136

123:                                              ; preds = %116
  %124 = load ptr, ptr %15, align 8
  store ptr %124, ptr %6, align 8
  %125 = load ptr, ptr %6, align 8
  %126 = getelementptr inbounds %struct._zval_struct, ptr %125, i32 0, i32 1
  %127 = getelementptr inbounds %struct.anon.4, ptr %126, i32 0, i32 1
  %128 = load i8, ptr %127, align 1
  %129 = zext i8 %128 to i32
  %130 = icmp ne i32 %129, 0
  call void @llvm.assume(i1 %130)
  %131 = load ptr, ptr %6, align 8
  %132 = load ptr, ptr %131, align 8
  store ptr %132, ptr %5, align 8
  %133 = load ptr, ptr %5, align 8
  %134 = load i32, ptr %133, align 4
  %135 = add i32 %134, 1
  store i32 %135, ptr %133, align 4
  br label %136

136:                                              ; preds = %123, %116
  br label %137

137:                                              ; preds = %136
  br label %138

138:                                              ; preds = %137
  %139 = load ptr, ptr %16, align 8
  store ptr %139, ptr %24, align 8
  %140 = load ptr, ptr %24, align 8
  %141 = getelementptr inbounds %struct._zval_struct, ptr %140, i32 0, i32 0
  %142 = load ptr, ptr %141, align 8
  store ptr %142, ptr %25, align 8
  %143 = load ptr, ptr %25, align 8
  %144 = getelementptr inbounds %struct._zend_array, ptr %143, i32 0, i32 0
  store ptr %144, ptr %10, align 8
  %145 = load ptr, ptr %10, align 8
  %146 = load i32, ptr %145, align 4
  %147 = icmp ugt i32 %146, 1
  %148 = xor i1 %147, true
  %149 = xor i1 %148, true
  %150 = zext i1 %149 to i32
  %151 = sext i32 %150 to i64
  %152 = icmp ne i64 %151, 0
  br i1 %152, label %153, label %176

153:                                              ; preds = %138
  br label %154

154:                                              ; preds = %153
  %155 = load ptr, ptr %25, align 8
  %156 = call ptr @zend_array_dup(ptr noundef %155)
  store ptr %156, ptr %26, align 8
  %157 = load ptr, ptr %24, align 8
  store ptr %157, ptr %27, align 8
  %158 = load ptr, ptr %26, align 8
  %159 = load ptr, ptr %27, align 8
  %160 = getelementptr inbounds %struct._zval_struct, ptr %159, i32 0, i32 0
  store ptr %158, ptr %160, align 8
  %161 = load ptr, ptr %27, align 8
  %162 = getelementptr inbounds %struct._zval_struct, ptr %161, i32 0, i32 1
  store i32 775, ptr %162, align 8
  br label %163

163:                                              ; preds = %154
  %164 = load ptr, ptr %25, align 8
  %165 = getelementptr inbounds %struct._zend_array, ptr %164, i32 0, i32 0
  store ptr %165, ptr %8, align 8
  %166 = load ptr, ptr %8, align 8
  %167 = getelementptr inbounds %struct._zend_refcounted_h, ptr %166, i32 0, i32 1
  %168 = load i32, ptr %167, align 4
  %169 = and i32 %168, 64
  %170 = icmp ne i32 %169, 0
  br i1 %170, label %175, label %171

171:                                              ; preds = %163
  %172 = load ptr, ptr %8, align 8
  %173 = load i32, ptr %172, align 4
  %174 = add i32 %173, -1
  store i32 %174, ptr %172, align 4
  br label %175

175:                                              ; preds = %171, %163
  br label %176

176:                                              ; preds = %175, %138
  br label %177

177:                                              ; preds = %176
  %178 = load ptr, ptr %16, align 8
  %179 = getelementptr inbounds %struct._zval_struct, ptr %178, i32 0, i32 0
  %180 = load ptr, ptr %179, align 8
  %181 = load ptr, ptr %14, align 8
  %182 = load ptr, ptr %14, align 8
  %183 = call i64 @strlen(ptr noundef %182) #13
  %184 = load ptr, ptr %15, align 8
  %185 = call ptr @zend_hash_str_update(ptr noundef %180, ptr noundef %181, i64 noundef %183, ptr noundef %184)
  ret void
}