; Function Attrs: nounwind uwtable
define void @php_stream_context_set_option(ptr nocapture noundef %0, ptr noundef %1, ptr noundef %2, ptr noundef %3) local_unnamed_addr #2 {
  %5 = alloca %struct._zval_struct, align 8
  %6 = getelementptr inbounds i8, ptr %0, i64 8
  %7 = load ptr, ptr %6, align 8
  %8 = load i32, ptr %7, align 4
  %9 = icmp ugt i32 %8, 1
  br i1 %9, label %10, label %19

10:                                               ; preds = %4
  %11 = tail call ptr @zend_array_dup(ptr noundef nonnull %7) #27
  store ptr %11, ptr %6, align 8
  %12 = getelementptr inbounds i8, ptr %0, i64 16
  store i32 775, ptr %12, align 8
  %13 = getelementptr inbounds i8, ptr %7, i64 4
  %14 = load i32, ptr %13, align 4
  %15 = and i32 %14, 64
  %.not = icmp eq i32 %15, 0
  br i1 %.not, label %16, label %19

16:                                               ; preds = %10
  %17 = load i32, ptr %7, align 4
  %18 = add i32 %17, -1
  store i32 %18, ptr %7, align 4
  %.pre = load ptr, ptr %6, align 8
  br label %19

19:                                               ; preds = %4, %16, %10
  %20 = phi ptr [ %7, %4 ], [ %.pre, %16 ], [ %11, %10 ]
  %21 = tail call i64 @strlen(ptr noundef nonnull dereferenceable(1) %1) #28
  %22 = tail call ptr @zend_hash_str_find(ptr noundef %20, ptr noundef %1, i64 noundef %21) #27
  %23 = icmp eq ptr %22, null
  br i1 %23, label %24, label %30

24:                                               ; preds = %19
  %25 = tail call ptr @_zend_new_array_0() #27
  store ptr %25, ptr %5, align 8
  %26 = getelementptr inbounds i8, ptr %5, i64 8
  store i32 775, ptr %26, align 8
  %27 = load ptr, ptr %6, align 8
  %28 = tail call i64 @strlen(ptr noundef nonnull dereferenceable(1) %1) #28
  %29 = call ptr @zend_hash_str_update(ptr noundef %27, ptr noundef %1, i64 noundef %28, ptr noundef nonnull %5) #27
  br label %30

30:                                               ; preds = %19, %24
  %.046 = phi ptr [ %29, %24 ], [ %22, %19 ]
  %31 = getelementptr inbounds i8, ptr %3, i64 8
  %32 = load i8, ptr %31, align 8
  %33 = icmp eq i8 %32, 10
  br i1 %33, label %34, label %37

34:                                               ; preds = %30
  %35 = load ptr, ptr %3, align 8
  %36 = getelementptr inbounds i8, ptr %35, i64 8
  br label %37

37:                                               ; preds = %34, %30
  %.0 = phi ptr [ %36, %34 ], [ %3, %30 ]
  %38 = getelementptr inbounds i8, ptr %.0, i64 9
  %39 = load i8, ptr %38, align 1
  %.not48 = icmp eq i8 %39, 0
  br i1 %.not48, label %44, label %40

40:                                               ; preds = %37
  %41 = load ptr, ptr %.0, align 8
  %42 = load i32, ptr %41, align 4
  %43 = add i32 %42, 1
  store i32 %43, ptr %41, align 4
  br label %44

44:                                               ; preds = %40, %37
  %45 = load ptr, ptr %.046, align 8
  %46 = load i32, ptr %45, align 4
  %47 = icmp ugt i32 %46, 1
  br i1 %47, label %48, label %57

48:                                               ; preds = %44
  %49 = call ptr @zend_array_dup(ptr noundef nonnull %45) #27
  store ptr %49, ptr %.046, align 8
  %50 = getelementptr inbounds i8, ptr %.046, i64 8
  store i32 775, ptr %50, align 8
  %51 = getelementptr inbounds i8, ptr %45, i64 4
  %52 = load i32, ptr %51, align 4
  %53 = and i32 %52, 64
  %.not49 = icmp eq i32 %53, 0
  br i1 %.not49, label %54, label %57

54:                                               ; preds = %48
  %55 = load i32, ptr %45, align 4
  %56 = add i32 %55, -1
  store i32 %56, ptr %45, align 4
  %.pre50 = load ptr, ptr %.046, align 8
  br label %57

57:                                               ; preds = %44, %54, %48
  %58 = phi ptr [ %45, %44 ], [ %.pre50, %54 ], [ %49, %48 ]
  %59 = call i64 @strlen(ptr noundef nonnull dereferenceable(1) %2) #28
  %60 = call ptr @zend_hash_str_update(ptr noundef %58, ptr noundef %2, i64 noundef %59, ptr noundef nonnull %.0) #27
  ret void
}